Certificate:
    Data:
        Version: 3 (0x2)
        Serial Number: 2 (0x2)
        Signature Algorithm: sha256WithRSAEncryption
        Issuer: C=CN, ST=Sichuan, L=Chengdu, O=Huawei, OU=dp, CN=RootCA
        Validity
            Not Before: Mar 15 13:46:03 2016 GMT
            Not After : Mar 13 13:46:03 2026 GMT
        Subject: C=CN, ST=Sichuan, O=Huawei, OU=dp, CN=dp.huawei.com/emailAddress=dp@huawei.com
        Subject Public Key Info:
            Public Key Algorithm: rsaEncryption
            RSA Public Key: (2048 bit)
                Modulus (2048 bit):
                    00:98:c6:84:bd:41:8d:64:a2:a6:fb:ce:7f:c7:5f:
                    4c:b3:6d:d7:64:23:8f:3d:d9:68:03:a5:47:3c:bb:
                    59:df:92:b0:ed:aa:27:37:2c:db:42:02:ad:75:aa:
                    08:32:fd:be:7f:ce:e4:46:b3:a2:4e:fe:24:50:15:
                    b4:8a:17:c3:e9:ca:91:a9:d8:e5:46:20:ed:31:0e:
                    0b:6e:68:a8:b8:f9:af:31:78:c3:74:50:52:33:6c:
                    64:9f:16:5f:ad:da:66:87:12:99:8c:e3:13:3f:b3:
                    c0:09:a1:6c:ee:e3:b4:a0:2a:4a:57:45:ae:bf:2e:
                    fe:79:dc:c5:53:52:0f:d4:9d:6b:63:a9:b5:93:e1:
                    ed:f4:08:e8:51:61:5a:87:04:8f:b7:26:72:aa:b3:
                    72:51:e7:c7:b6:d6:b5:fe:89:19:8f:20:45:96:2a:
                    f3:b3:81:56:fb:58:40:3a:fc:a5:19:df:e4:78:1b:
                    11:7c:3a:bc:98:05:93:c6:f2:de:31:f3:67:36:bf:
                    b7:c7:e2:8f:e5:c6:29:54:fd:3f:9b:b3:70:15:b5:
                    f0:22:e8:8a:a3:d7:54:4a:55:26:3a:f3:16:ed:54:
                    b1:af:a4:65:1b:37:9e:e3:0f:eb:47:3e:02:0e:9c:
                    9b:08:07:cf:81:d4:06:aa:2e:c6:36:ba:18:c3:e9:
                    5c:db
                Exponent: 65537 (0x10001)
        X509v3 extensions:
            X509v3 Basic Constraints: 
                CA:FALSE
            Netscape Comment: 
                OpenSSL Generated Certificate
            X509v3 Subject Key Identifier: 
                F3:90:6E:7D:F2:77:C1:61:42:35:90:24:76:A3:35:55:33:1D:41:C4
            X509v3 Authority Key Identifier: 
                keyid:ED:84:43:C0:2D:19:81:F9:5E:2C:6E:11:20:F5:5E:57:22:94:73:14

    Signature Algorithm: sha256WithRSAEncryption
        a5:6c:30:42:8c:37:0b:5d:ac:c1:af:45:c9:67:20:cd:4d:d8:
        87:c6:f0:e4:9b:28:98:d7:b9:6e:2c:6a:93:96:d8:52:b2:36:
        c1:4d:ce:8c:10:8b:b6:53:07:4a:e0:b6:33:ad:6e:d7:0e:b0:
        32:c5:1d:0f:ca:bd:49:57:a8:04:ca:b2:98:bd:d7:4a:34:8b:
        15:fa:9a:1a:9c:b0:7b:37:ce:07:4a:4a:3d:e7:64:27:d0:e2:
        5c:76:55:3f:36:83:ff:9b:c4:14:c0:99:77:62:83:b6:59:0d:
        cd:ef:ff:32:36:e6:94:da:6a:40:88:2b:f3:f6:22:ad:64:bb:
        79:62:6b:db:de:05:1b:93:48:43:1f:7a:b5:95:c9:0c:7d:c7:
        e9:bf:39:d0:55:67:19:72:44:1d:00:e8:b9:6a:22:25:a7:73:
        93:50:6d:fd:a5:9b:5d:79:d6:a2:7f:7b:cb:13:87:7e:fe:67:
        07:9b:52:49:4e:ee:f9:d9:a3:73:ec:62:8b:9f:d5:f8:cf:33:
        46:f6:bc:cb:91:fb:5e:32:5c:bb:ec:27:5e:52:fa:66:f1:7f:
        aa:e9:36:f2:f7:bd:94:33:2e:db:61:20:93:0a:60:d4:c0:13:
        00:dc:9f:31:6f:f5:f7:fe:7d:de:2c:a8:f4:3a:da:6b:1a:47:
        05:ed:da:48
-----BEGIN CERTIFICATE-----
MIIDyTCCArGgAwIBAgIBAjANBgkqhkiG9w0BAQsFADBgMQswCQYDVQQGEwJDTjEQ
MA4GA1UECBMHU2ljaHVhbjEQMA4GA1UEBxMHQ2hlbmdkdTEPMA0GA1UEChMGSHVh
d2VpMQswCQYDVQQLEwJkcDEPMA0GA1UEAxMGUm9vdENBMB4XDTE2MDMxNTEzNDYw
M1oXDTI2MDMxMzEzNDYwM1owczELMAkGA1UEBhMCQ04xEDAOBgNVBAgTB1NpY2h1
YW4xDzANBgNVBAoTBkh1YXdlaTELMAkGA1UECxMCZHAxFjAUBgNVBAMTDWRwLmh1
YXdlaS5jb20xHDAaBgkqhkiG9w0BCQEWDWRwQGh1YXdlaS5jb20wggEiMA0GCSqG
SIb3DQEBAQUAA4IBDwAwggEKAoIBAQCYxoS9QY1koqb7zn/HX0yzbddkI4892WgD
pUc8u1nfkrDtqic3LNtCAq11qggy/b5/zuRGs6JO/iRQFbSKF8PpypGp2OVGIO0x
DgtuaKi4+a8xeMN0UFIzbGSfFl+t2maHEpmM4xM/s8AJoWzu47SgKkpXRa6/Lv55
3MVTUg/UnWtjqbWT4e30COhRYVqHBI+3JnKqs3JR58e21rX+iRmPIEWWKvOzgVb7
WEA6/KUZ3+R4GxF8OryYBZPG8t4x82c2v7fH4o/lxilU/T+bs3AVtfAi6Iqj11RK
VSY68xbtVLGvpGUbN57jD+tHPgIOnJsIB8+B1AaqLsY2uhjD6VzbAgMBAAGjezB5
MAkGA1UdEwQCMAAwLAYJYIZIAYb4QgENBB8WHU9wZW5TU0wgR2VuZXJhdGVkIENl
cnRpZmljYXRlMB0GA1UdDgQWBBTzkG598nfBYUI1kCR2ozVVMx1BxDAfBgNVHSME
GDAWgBTthEPALRmB+V4sbhEg9V5XIpRzFDANBgkqhkiG9w0BAQsFAAOCAQEApWww
Qow3C12swa9FyWcgzU3Yh8bw5JsomNe5bixqk5bYUrI2wU3OjBCLtlMHSuC2M61u
1w6wMsUdD8q9SVeoBMqymL3XSjSLFfqaGpywezfOB0pKPedkJ9DiXHZVPzaD/5vE
FMCZd2KDtlkNze//MjbmlNpqQIgr8/YirWS7eWJr294FG5NIQx96tZXJDH3H6b85
0FVnGXJEHQDouWoiJadzk1Bt/aWbXXnWon97yxOHfv5nB5tSSU7u+dmjc+xii5/V
+M8zRva8y5H7XjJcu+wnXlL6ZvF/quk28ve9lDMu22Egkwpg1MATANyfMW/19/59
3iyo9DraaxpHBe3aSA==
-----END CERTIFICATE-----
